target datalayout = "e-m:e-p270:32:32-p271:32:32-p272:64:64-i64:64-i128:128-f80:128-n8:16:32:64-S128"
target triple = "x86_64-pc-linux-gnu"

; Function Attrs: mustprogress nounwind uwtable
define noundef i32 @_ZN6icu_7718CollationFastLatin6lookupEPKti(ptr noundef %0, i32 noundef %1) #2 align 2 {
  %3 = alloca i32, align 4
  %4 = alloca ptr, align 8
  %5 = alloca i32, align 4
  store ptr %0, ptr %4, align 8, !tbaa !10
  store i32 %1, ptr %5, align 4, !tbaa !12
  %6 = load i32, ptr %5, align 4, !tbaa !12
  %7 = icmp sle i32 8192, %6
  br i1 %7, label %8, label %20

8:                                                ; preds = %2
  %9 = load i32, ptr %5, align 4, !tbaa !12
  %10 = icmp slt i32 %9, 8256
  br i1 %10, label %11, label %20

11:                                               ; preds = %8
  %12 = load ptr, ptr %4, align 8, !tbaa !10
  %13 = load i32, ptr %5, align 4, !tbaa !12
  %14 = sub nsw i32 %13, 8192
  %15 = add nsw i32 %14, 384
  %16 = sext i32 %15 to i64
  %17 = getelementptr inbounds i16, ptr %12, i64 %16
  %18 = load i16, ptr %17, align 2, !tbaa !30
  %19 = zext i16 %18 to i32
  store i32 %19, ptr %3, align 4
  br label %29

20:                                               ; preds = %8, %2
  %21 = load i32, ptr %5, align 4, !tbaa !12
  %22 = icmp eq i32 %21, 65534
  br i1 %22, label %23, label %24

23:                                               ; preds = %20
  store i32 3, ptr %3, align 4
  br label %29

24:                                               ; preds = %20
  %25 = load i32, ptr %5, align 4, !tbaa !12
  %26 = icmp eq i32 %25, 65535
  br i1 %26, label %27, label %28

27:                                               ; preds = %24
  store i32 64680, ptr %3, align 4
  br label %29

28:                                               ; preds = %24
  store i32 1, ptr %3, align 4
  br label %29

29:                                               ; preds = %28, %27, %23, %11
  %30 = load i32, ptr %3, align 4
  ret i32 %30
}