; Function Attrs: mustprogress nofree norecurse nosync nounwind willreturn memory(argmem: read) uwtable
define noundef range(i32 0, 65536) i32 @_ZN6icu_7718CollationFastLatin6lookupEPKti(ptr noundef readonly captures(none) %0, i32 noundef %1) local_unnamed_addr #4 align 2 {
  %3 = and i32 %1, -64
  %or.cond = icmp eq i32 %3, 8192
  br i1 %or.cond, label %4, label %10

4:                                                ; preds = %2
  %5 = zext nneg i32 %1 to i64
  %6 = getelementptr i16, ptr %0, i64 %5
  %7 = getelementptr i8, ptr %6, i64 -15616
  %8 = load i16, ptr %7, align 2, !tbaa !25
  %9 = zext i16 %8 to i32
  br label %11

10:                                               ; preds = %2
  %switch.selectcmp = icmp eq i32 %1, 65535
  %switch.select = select i1 %switch.selectcmp, i32 64680, i32 1
  %switch.selectcmp8 = icmp eq i32 %1, 65534
  %switch.select9 = select i1 %switch.selectcmp8, i32 3, i32 %switch.select
  br label %11

11:                                               ; preds = %10, %4
  %.0 = phi i32 [ %9, %4 ], [ %switch.select9, %10 ]
  ret i32 %.0
}